target datalayout = "e-m:e-p270:32:32-p271:32:32-p272:64:64-i64:64-i128:128-f80:128-n8:16:32:64-S128"
target triple = "x86_64-pc-linux-gnu"

%struct._object = type { %union.anon, ptr }
%union.anon = type { i64 }
%struct.PyDescrObject = type { %struct._object, ptr, ptr, ptr }
%struct.wrapperbase = type { ptr, i32, ptr, ptr, ptr, i32, ptr }
%struct.PyWrapperDescrObject = type { %struct.PyDescrObject, ptr, ptr }
%struct.wrapperobject = type { %struct._object, ptr, ptr }

; Function Attrs: nounwind uwtable
define internal ptr @wrapper_name(ptr noundef %0, ptr noundef %1) #0 {
  %3 = alloca ptr, align 8
  %4 = alloca ptr, align 8
  %5 = alloca ptr, align 8
  store ptr %0, ptr %3, align 8, !tbaa !4
  store ptr %1, ptr %4, align 8, !tbaa !9
  call void @llvm.lifetime.start.p0(i64 8, ptr %5) #6
  %6 = load ptr, ptr %3, align 8, !tbaa !4
  %7 = getelementptr inbounds nuw %struct.wrapperobject, ptr %6, i32 0, i32 1
  %8 = load ptr, ptr %7, align 8, !tbaa !148
  %9 = getelementptr inbounds nuw %struct.PyWrapperDescrObject, ptr %8, i32 0, i32 1
  %10 = load ptr, ptr %9, align 8, !tbaa !60
  %11 = getelementptr inbounds nuw %struct.wrapperbase, ptr %10, i32 0, i32 0
  %12 = load ptr, ptr %11, align 8, !tbaa !58
  store ptr %12, ptr %5, align 8, !tbaa !52
  %13 = load ptr, ptr %5, align 8, !tbaa !52
  %14 = call ptr @PyUnicode_FromString(ptr noundef %13)
  call void @llvm.lifetime.end.p0(i64 8, ptr %5) #6
  ret ptr %14
}