; Function Attrs: nounwind uwtable
define internal ptr @wrapper_name(ptr noundef readonly captures(none) %0, ptr readnone captures(none) %1) #0 {
  %3 = getelementptr inbounds nuw i8, ptr %0, i64 16
  %4 = load ptr, ptr %3, align 8, !tbaa !60
  %5 = getelementptr inbounds nuw i8, ptr %4, i64 40
  %6 = load ptr, ptr %5, align 8, !tbaa !48
  %7 = load ptr, ptr %6, align 8, !tbaa !59
  %8 = tail call ptr @PyUnicode_FromString(ptr noundef %7) #9
  ret ptr %8
}